; Function Attrs: mustprogress nofree norecurse nosync nounwind willreturn memory(read, argmem: readwrite, inaccessiblemem: none) uwtable
define internal range(i32 0, 23) i32 @opt_malloc_conf_env_var_ctl(ptr readnone captures(none) %0, ptr readnone captures(none) %1, i64 %2, ptr noundef writeonly captures(address_is_null) %3, ptr noundef captures(address_is_null) %4, ptr noundef readnone captures(address_is_null) %5, i64 noundef %6) #12 {
  %8 = alloca ptr, align 8
  call void @llvm.lifetime.start.p0(i64 8, ptr nonnull %8)
  %9 = load ptr, ptr @je_opt_malloc_conf_env_var, align 8, !tbaa !38
  %.not = icmp eq ptr %9, null
  br i1 %.not, label %20, label %10

10:                                               ; preds = %7
  %11 = icmp ne ptr %5, null
  %12 = icmp ne i64 %6, 0
  %or.cond = or i1 %11, %12
  br i1 %or.cond, label %20, label %13

13:                                               ; preds = %10
  store ptr %9, ptr %8, align 8, !tbaa !38
  %14 = icmp ne ptr %3, null
  %15 = icmp ne ptr %4, null
  %or.cond3 = and i1 %14, %15
  br i1 %or.cond3, label %16, label %20

16:                                               ; preds = %13
  %17 = load i64, ptr %4, align 8, !tbaa !4
  %.not23 = icmp eq i64 %17, 8
  br i1 %.not23, label %19, label %18

18:                                               ; preds = %16
  %spec.select = tail call i64 @llvm.umin.i64(i64 %17, i64 8)
  call void @llvm.memcpy.p0.p0.i64(ptr nonnull align 1 %3, ptr nonnull align 8 %8, i64 %spec.select, i1 false)
  store i64 %spec.select, ptr %4, align 8, !tbaa !4
  br label %20

19:                                               ; preds = %16
  store ptr %9, ptr %3, align 8, !tbaa !38
  br label %20

20:                                               ; preds = %18, %10, %19, %13, %7
  %.0 = phi i32 [ 2, %7 ], [ 22, %18 ], [ 1, %10 ], [ 0, %19 ], [ 0, %13 ]
  call void @llvm.lifetime.end.p0(i64 8, ptr nonnull %8)
  ret i32 %.0
}